; Function Attrs: mustprogress nofree norecurse nosync nounwind willreturn memory(argmem: write) uwtable
define void @_ZN12colvarparamsC2Ev(ptr noundef nonnull align 8 dereferenceable(104) initializes((0, 8), (16, 20), (24, 32)) %0) unnamed_addr #5 align 2 personality ptr @__gxx_personality_v0 {
  store ptr getelementptr inbounds nuw inrange(-16, 64) (i8, ptr @_ZTV12colvarparams, i64 16), ptr %0, align 8, !tbaa !41
  %2 = getelementptr inbounds nuw i8, ptr %0, i64 16
  store i32 0, ptr %2, align 8, !tbaa !51
  %3 = getelementptr inbounds nuw i8, ptr %0, i64 24
  store ptr null, ptr %3, align 8, !tbaa !28
  %4 = getelementptr inbounds nuw i8, ptr %0, i64 32
  store ptr %2, ptr %4, align 8, !tbaa !4
  %5 = getelementptr inbounds nuw i8, ptr %0, i64 40
  store ptr %2, ptr %5, align 8, !tbaa !52
  %6 = getelementptr inbounds nuw i8, ptr %0, i64 48
  store i64 0, ptr %6, align 8, !tbaa !53
  %7 = getelementptr inbounds nuw i8, ptr %0, i64 64
  store i32 0, ptr %7, align 8, !tbaa !51
  %8 = getelementptr inbounds nuw i8, ptr %0, i64 72
  store ptr null, ptr %8, align 8, !tbaa !28
  %9 = getelementptr inbounds nuw i8, ptr %0, i64 80
  store ptr %7, ptr %9, align 8, !tbaa !4
  %10 = getelementptr inbounds nuw i8, ptr %0, i64 88
  store ptr %7, ptr %10, align 8, !tbaa !52
  %11 = getelementptr inbounds nuw i8, ptr %0, i64 96
  store i64 0, ptr %11, align 8, !tbaa !53
  ret void
}